; Function Attrs: mustprogress uwtable
define void @_ZN9benchmark16AddCustomContextERKNSt7__cxx1112basic_stringIcSt11char_traitsIcESaIcEEES7_(ptr noundef nonnull align 8 dereferenceable(32) %0, ptr noundef nonnull align 8 dereferenceable(32) %1) local_unnamed_addr #0 personality ptr @__gxx_personality_v0 {
  %3 = load ptr, ptr @_ZN9benchmark8internal14global_contextB5cxx11E, align 8, !tbaa !254
  %4 = icmp eq ptr %3, null
  br i1 %4, label %5, label %11

5:                                                ; preds = %2
  %6 = tail call noalias noundef nonnull dereferenceable(48) ptr @_Znwm(i64 noundef 48) #35
  %7 = getelementptr inbounds nuw i8, ptr %6, i64 8
  %8 = getelementptr inbounds nuw i8, ptr %6, i64 24
  tail call void @llvm.memset.p0.i64(ptr noundef nonnull align 16 dereferenceable(32) %6, i8 0, i64 32, i1 false)
  store ptr %7, ptr %8, align 8, !tbaa !46
  %9 = getelementptr inbounds nuw i8, ptr %6, i64 32
  store ptr %7, ptr %9, align 8, !tbaa !47
  %10 = getelementptr inbounds nuw i8, ptr %6, i64 40
  store i64 0, ptr %10, align 8, !tbaa !48
  store ptr %6, ptr @_ZN9benchmark8internal14global_contextB5cxx11E, align 8, !tbaa !254
  br label %11

11:                                               ; preds = %5, %2
  %12 = phi ptr [ %6, %5 ], [ %3, %2 ]
  %13 = tail call { ptr, i8 } @_ZNSt3mapINSt7__cxx1112basic_stringIcSt11char_traitsIcESaIcEEES5_St4lessIS5_ESaISt4pairIKS5_S5_EEE7emplaceIJRS9_SE_EEES8_ISt17_Rb_tree_iteratorISA_EbEDpOT_(ptr noundef nonnull align 8 dereferenceable(48) %12, ptr noundef nonnull align 8 dereferenceable(32) %0, ptr noundef nonnull align 8 dereferenceable(32) %1)
  %.fca.1.extract = extractvalue { ptr, i8 } %13, 1
  %14 = trunc i8 %.fca.1.extract to i1
  br i1 %14, label %28, label %15

15:                                               ; preds = %11
  %16 = tail call noundef nonnull align 8 dereferenceable(8) ptr @_ZSt16__ostream_insertIcSt11char_traitsIcEERSt13basic_ostreamIT_T0_ES6_PKS3_l(ptr noundef nonnull align 8 dereferenceable(8) @_ZSt4cerr, ptr noundef nonnull @.str.51, i64 noundef 30)
  %17 = load ptr, ptr %0, align 8, !tbaa !50
  %18 = getelementptr inbounds nuw i8, ptr %0, i64 8
  %19 = load i64, ptr %18, align 8, !tbaa !51
  %20 = tail call noundef nonnull align 8 dereferenceable(8) ptr @_ZSt16__ostream_insertIcSt11char_traitsIcEERSt13basic_ostreamIT_T0_ES6_PKS3_l(ptr noundef nonnull align 8 dereferenceable(8) @_ZSt4cerr, ptr noundef %17, i64 noundef %19)
  %21 = tail call noundef nonnull align 8 dereferenceable(8) ptr @_ZSt16__ostream_insertIcSt11char_traitsIcEERSt13basic_ostreamIT_T0_ES6_PKS3_l(ptr noundef nonnull align 8 dereferenceable(8) %20, ptr noundef nonnull @.str.52, i64 noundef 16)
  %22 = tail call noundef nonnull align 8 dereferenceable(8) ptr @_ZSt16__ostream_insertIcSt11char_traitsIcEERSt13basic_ostreamIT_T0_ES6_PKS3_l(ptr noundef nonnull align 8 dereferenceable(8) %20, ptr noundef nonnull @.str.53, i64 noundef 19)
  %23 = load ptr, ptr %1, align 8, !tbaa !50
  %24 = getelementptr inbounds nuw i8, ptr %1, i64 8
  %25 = load i64, ptr %24, align 8, !tbaa !51
  %26 = tail call noundef nonnull align 8 dereferenceable(8) ptr @_ZSt16__ostream_insertIcSt11char_traitsIcEERSt13basic_ostreamIT_T0_ES6_PKS3_l(ptr noundef nonnull align 8 dereferenceable(8) %20, ptr noundef %23, i64 noundef %25)
  %27 = tail call noundef nonnull align 8 dereferenceable(8) ptr @_ZSt16__ostream_insertIcSt11char_traitsIcEERSt13basic_ostreamIT_T0_ES6_PKS3_l(ptr noundef nonnull align 8 dereferenceable(8) %26, ptr noundef nonnull @.str.54, i64 noundef 2)
  br label %28

28:                                               ; preds = %15, %11
  ret void
}